; Function Attrs: mustprogress nounwind uwtable
define hidden void @_ZN12ZDriverMinorC2Ev(ptr noundef nonnull align 8 dereferenceable(1264) %0) unnamed_addr #1 align 2 {
  tail call void @_ZN18ConcurrentGCThreadC2Ev(ptr noundef nonnull align 8 dereferenceable(918) %0) #13
  %2 = getelementptr inbounds i8, ptr %0, i64 920
  store i32 11, ptr %2, align 8
  store ptr getelementptr inbounds inrange(-16, 256) (i8, ptr @_ZTV12ZDriverMinor, i64 16), ptr %0, align 8
  %3 = getelementptr inbounds i8, ptr %0, i64 928
  tail call void @_ZN11ZDriverPortC1Ev(ptr noundef nonnull align 8 dereferenceable(136) %3) #13
  %4 = getelementptr inbounds i8, ptr %0, i64 1064
  %5 = getelementptr inbounds i8, ptr %0, i64 1104
  tail call void @llvm.memset.p0.i64(ptr noundef nonnull align 8 dereferenceable(112) %5, i8 0, i64 72, i1 false)
  store ptr getelementptr inbounds inrange(-16, 16) (i8, ptr @_ZTV7GCTimer, i64 16), ptr %4, align 8
  %6 = getelementptr inbounds i8, ptr %0, i64 1072
  %7 = getelementptr inbounds i8, ptr %0, i64 1104
  tail call void @llvm.memset.p0.i64(ptr noundef nonnull align 8 dereferenceable(32) %6, i8 0, i64 32, i1 false)
  tail call void @_ZN14TimePartitionsC1Ev(ptr noundef nonnull align 8 dereferenceable(72) %7) #13
  store ptr getelementptr inbounds inrange(-16, 16) (i8, ptr @_ZTV17ConcurrentGCTimer, i64 16), ptr %4, align 8
  %8 = getelementptr inbounds i8, ptr %0, i64 1176
  tail call void @_ZN12ZMinorTracerC1Ev(ptr noundef nonnull align 8 dereferenceable(80) %8) #13
  %9 = getelementptr inbounds i8, ptr %0, i64 1256
  store i64 0, ptr %9, align 8
  store ptr %0, ptr @_ZN7ZDriver6_minorE, align 8
  tail call void (ptr, ptr, ...) @_ZN11NamedThread8set_nameEPKcz(ptr noundef nonnull align 8 dereferenceable(916) %0, ptr noundef nonnull @.str.7) #13
  tail call void @_ZN18ConcurrentGCThread16create_and_startE14ThreadPriority(ptr noundef nonnull align 8 dereferenceable(918) %0, i32 noundef 9) #13
  ret void
}